; Function Attrs: mustprogress nounwind uwtable
define hidden void @_ZN10PSYoungGen11post_resizeEv(ptr nocapture noundef nonnull readonly align 8 dereferenceable(104) %0) local_unnamed_addr #0 align 2 {
  %2 = getelementptr inbounds i8, ptr %0, i64 24
  %3 = load ptr, ptr %2, align 8
  %4 = getelementptr inbounds i8, ptr %3, i64 32
  %5 = load ptr, ptr %4, align 8
  %6 = getelementptr inbounds i8, ptr %3, i64 40
  %7 = load ptr, ptr %6, align 8
  %8 = ptrtoint ptr %7 to i64
  %9 = ptrtoint ptr %5 to i64
  %10 = sub i64 %8, %9
  %11 = lshr i64 %10, 3
  %12 = load ptr, ptr @_ZN8Universe14_collectedHeapE, align 8
  %13 = tail call noundef ptr @_ZN20ParallelScavengeHeap10card_tableEv(ptr noundef nonnull align 8 dereferenceable(264) %12) #9
  tail call void @_ZN9CardTable21resize_covered_regionE9MemRegion(ptr noundef nonnull align 8 dereferenceable(88) %13, ptr %5, i64 %11) #9
  ret void
}